; Function Attrs: nounwind uwtable
define noundef nonnull ptr @l_Std_DHashMap_Internal_AssocList_contains___at_Lake_LeanExe_recBuildExe___spec__5___boxed(ptr noundef %0, ptr noundef %1) local_unnamed_addr #0 {
  %3 = getelementptr inbounds nuw i8, ptr %0, i64 16
  br label %4

4:                                                ; preds = %14, %2
  %.013.i = phi ptr [ %1, %2 ], [ %18, %14 ]
  %5 = ptrtoint ptr %.013.i to i64
  %6 = and i64 %5, 1
  %.not.i.i = icmp eq i64 %6, 0
  br i1 %.not.i.i, label %10, label %7

7:                                                ; preds = %4
  %8 = lshr i64 %5, 1
  %9 = trunc i64 %8 to i32
  br label %lean_obj_tag.exit.i

10:                                               ; preds = %4
  %11 = getelementptr i8, ptr %.013.i, i64 4
  %.val.i.i = load i32, ptr %11, align 4
  %12 = lshr i32 %.val.i.i, 24
  br label %lean_obj_tag.exit.i

lean_obj_tag.exit.i:                              ; preds = %10, %7
  %.0.i.i = phi i32 [ %9, %7 ], [ %12, %10 ]
  %13 = icmp eq i32 %.0.i.i, 0
  br i1 %13, label %l_Std_DHashMap_Internal_AssocList_contains___at_Lake_LeanExe_recBuildExe___spec__5.exit, label %14

14:                                               ; preds = %lean_obj_tag.exit.i
  %15 = getelementptr inbounds nuw i8, ptr %.013.i, i64 8
  %16 = load ptr, ptr %15, align 8, !tbaa !10
  %17 = getelementptr inbounds nuw i8, ptr %.013.i, i64 24
  %18 = load ptr, ptr %17, align 8, !tbaa !10
  %19 = getelementptr inbounds nuw i8, ptr %16, i64 16
  %20 = load ptr, ptr %19, align 8, !tbaa !10
  %21 = load ptr, ptr %3, align 8, !tbaa !10
  %22 = tail call zeroext i8 @lean_name_eq(ptr noundef %20, ptr noundef %21) #6
  %23 = icmp eq i8 %22, 0
  br i1 %23, label %4, label %l_Std_DHashMap_Internal_AssocList_contains___at_Lake_LeanExe_recBuildExe___spec__5.exit

l_Std_DHashMap_Internal_AssocList_contains___at_Lake_LeanExe_recBuildExe___spec__5.exit: ; preds = %lean_obj_tag.exit.i, %14
  %.1.i = phi i64 [ 3, %14 ], [ 1, %lean_obj_tag.exit.i ]
  %24 = ptrtoint ptr %1 to i64
  %25 = and i64 %24, 1
  %.not = icmp eq i64 %25, 0
  br i1 %.not, label %26, label %lean_dec.exit5

26:                                               ; preds = %l_Std_DHashMap_Internal_AssocList_contains___at_Lake_LeanExe_recBuildExe___spec__5.exit
  %27 = load i32, ptr %1, align 4, !tbaa !4
  %28 = icmp sgt i32 %27, 1
  br i1 %28, label %29, label %31, !prof !9

29:                                               ; preds = %26
  %30 = add nsw i32 %27, -1
  store i32 %30, ptr %1, align 4, !tbaa !4
  br label %lean_dec.exit5

31:                                               ; preds = %26
  %.not.i = icmp eq i32 %27, 0
  br i1 %.not.i, label %lean_dec.exit5, label %32

32:                                               ; preds = %31
  tail call void @lean_dec_ref_cold(ptr noundef nonnull %1) #6
  br label %lean_dec.exit5

lean_dec.exit5:                                   ; preds = %32, %31, %29, %l_Std_DHashMap_Internal_AssocList_contains___at_Lake_LeanExe_recBuildExe___spec__5.exit
  %33 = ptrtoint ptr %0 to i64
  %34 = and i64 %33, 1
  %.not8 = icmp eq i64 %34, 0
  br i1 %.not8, label %35, label %lean_dec.exit

35:                                               ; preds = %lean_dec.exit5
  %36 = load i32, ptr %0, align 4, !tbaa !4
  %37 = icmp sgt i32 %36, 1
  br i1 %37, label %38, label %40, !prof !9

38:                                               ; preds = %35
  %39 = add nsw i32 %36, -1
  store i32 %39, ptr %0, align 4, !tbaa !4
  br label %lean_dec.exit

40:                                               ; preds = %35
  %.not.i6 = icmp eq i32 %36, 0
  br i1 %.not.i6, label %lean_dec.exit, label %41

41:                                               ; preds = %40
  tail call void @lean_dec_ref_cold(ptr noundef nonnull %0) #6
  br label %lean_dec.exit

lean_dec.exit:                                    ; preds = %41, %40, %38, %lean_dec.exit5
  %42 = inttoptr i64 %.1.i to ptr
  ret ptr %42
}